target datalayout = "e-m:e-p270:32:32-p271:32:32-p272:64:64-i64:64-i128:128-f80:128-n8:16:32:64-S128"
target triple = "x86_64-pc-linux-gnu"

%"class.std::__cxx11::basic_string" = type { %"struct.std::__cxx11::basic_string<char>::_Alloc_hider", i64, %union.anon }
%"struct.std::__cxx11::basic_string<char>::_Alloc_hider" = type { ptr }
%union.anon = type { i64, [8 x i8] }
%"struct.llvm::SubRegRangeByHwMode" = type { %"struct.llvm::InfoByHwMode" }
%"struct.llvm::InfoByHwMode" = type { %"class.std::map" }
%"class.std::map" = type { %"class.std::_Rb_tree" }
%"class.std::_Rb_tree" = type { %"struct.std::_Rb_tree<unsigned int, std::pair<const unsigned int, llvm::SubRegRange>, std::_Select1st<std::pair<const unsigned int, llvm::SubRegRange>>, std::less<unsigned int>>::_Rb_tree_impl" }
%"struct.std::_Rb_tree<unsigned int, std::pair<const unsigned int, llvm::SubRegRange>, std::_Select1st<std::pair<const unsigned int, llvm::SubRegRange>>, std::less<unsigned int>>::_Rb_tree_impl" = type { [8 x i8], %"struct.std::_Rb_tree_header" }
%"struct.std::_Rb_tree_header" = type { %"struct.std::_Rb_tree_node_base", i64 }
%"struct.std::_Rb_tree_node_base" = type { i32, ptr, ptr, ptr }
%"class.llvm::CodeGenSubRegIndex" = type { ptr, %"class.std::__cxx11::basic_string", %"class.std::__cxx11::basic_string", %"struct.llvm::SubRegRangeByHwMode", i32, %"struct.llvm::LaneBitmask", %"class.llvm::SmallVector", %"class.llvm::SmallVector.3", i8, i8, %"class.std::map.8" }
%"struct.llvm::LaneBitmask" = type { i64 }
%"class.llvm::SmallVector" = type { %"class.llvm::SmallVectorImpl", %"struct.llvm::SmallVectorStorage" }
%"class.llvm::SmallVectorImpl" = type { %"class.llvm::SmallVectorTemplateBase" }
%"class.llvm::SmallVectorTemplateBase" = type { %"class.llvm::SmallVectorTemplateCommon" }
%"class.llvm::SmallVectorTemplateCommon" = type { %"class.llvm::SmallVectorBase" }
%"class.llvm::SmallVectorBase" = type { ptr, i32, i32 }
%"struct.llvm::SmallVectorStorage" = type { [16 x i8] }
%"class.llvm::SmallVector.3" = type { %"class.llvm::SmallVectorImpl.4", %"struct.llvm::SmallVectorStorage.7" }
%"class.llvm::SmallVectorImpl.4" = type { %"class.llvm::SmallVectorTemplateBase.5" }
%"class.llvm::SmallVectorTemplateBase.5" = type { %"class.llvm::SmallVectorTemplateCommon.6" }
%"class.llvm::SmallVectorTemplateCommon.6" = type { %"class.llvm::SmallVectorBase" }
%"struct.llvm::SmallVectorStorage.7" = type { [32 x i8] }
%"class.std::map.8" = type { %"class.std::_Rb_tree.9" }
%"class.std::_Rb_tree.9" = type { %"struct.std::_Rb_tree<llvm::CodeGenSubRegIndex *, std::pair<llvm::CodeGenSubRegIndex *const, llvm::CodeGenSubRegIndex *>, std::_Select1st<std::pair<llvm::CodeGenSubRegIndex *const, llvm::CodeGenSubRegIndex *>>, llvm::deref<std::less<void>>>::_Rb_tree_impl" }
%"struct.std::_Rb_tree<llvm::CodeGenSubRegIndex *, std::pair<llvm::CodeGenSubRegIndex *const, llvm::CodeGenSubRegIndex *>, std::_Select1st<std::pair<llvm::CodeGenSubRegIndex *const, llvm::CodeGenSubRegIndex *>>, llvm::deref<std::less<void>>>::_Rb_tree_impl" = type { [8 x i8], %"struct.std::_Rb_tree_header" }

; Function Attrs: mustprogress nounwind uwtable
define linkonce_odr hidden noundef ptr @_ZNSt11__copy_moveILb1ELb1ESt26random_access_iterator_tagE8__copy_mIPN4llvm18CodeGenSubRegIndexEEEPT_PKS6_S9_S7_(ptr noundef %0, ptr noundef %1, ptr noundef %2) #0 comdat align 2 {
  %4 = alloca ptr, align 8
  %5 = alloca ptr, align 8
  %6 = alloca ptr, align 8
  %7 = alloca i64, align 8
  store ptr %0, ptr %4, align 8
  store ptr %1, ptr %5, align 8
  store ptr %2, ptr %6, align 8
  %8 = load ptr, ptr %5, align 8
  %9 = load ptr, ptr %4, align 8
  %10 = ptrtoint ptr %8 to i64
  %11 = ptrtoint ptr %9 to i64
  %12 = sub i64 %10, %11
  %13 = sdiv exact i64 %12, 8
  store i64 %13, ptr %7, align 8
  %14 = load i64, ptr %7, align 8
  %15 = icmp ne i64 %14, 0
  br i1 %15, label %16, label %21

16:                                               ; preds = %3
  %17 = load ptr, ptr %6, align 8
  %18 = load ptr, ptr %4, align 8
  %19 = load i64, ptr %7, align 8
  %20 = mul i64 8, %19
  call void @llvm.memmove.p0.p0.i64(ptr align 8 %17, ptr align 8 %18, i64 %20, i1 false)
  br label %21

21:                                               ; preds = %16, %3
  %22 = load ptr, ptr %6, align 8
  %23 = load i64, ptr %7, align 8
  %24 = getelementptr inbounds ptr, ptr %22, i64 %23
  ret ptr %24
}

; Function Attrs: mustprogress nounwind uwtable
define linkonce_odr noundef ptr @_ZSt14__copy_move_a2ILb1EPPN4llvm18CodeGenSubRegIndexES3_ET1_T0_S5_S4_(ptr noundef %0, ptr noundef %1, ptr noundef %2) #0 comdat {
  %4 = alloca ptr, align 8
  %5 = alloca ptr, align 8
  %6 = alloca ptr, align 8
  store ptr %0, ptr %4, align 8
  store ptr %1, ptr %5, align 8
  store ptr %2, ptr %6, align 8
  %7 = load ptr, ptr %4, align 8
  %8 = load ptr, ptr %5, align 8
  %9 = load ptr, ptr %6, align 8
  %10 = call noundef ptr @_ZNSt11__copy_moveILb1ELb1ESt26random_access_iterator_tagE8__copy_mIPN4llvm18CodeGenSubRegIndexEEEPT_PKS6_S9_S7_(ptr noundef %7, ptr noundef %8, ptr noundef %9)
  ret ptr %10
}

; Function Attrs: mustprogress nounwind uwtable
define linkonce_odr noundef ptr @_ZSt12__niter_wrapIPPN4llvm18CodeGenSubRegIndexEET_RKS4_S4_(ptr noundef nonnull align 8 dereferenceable(8) %0, ptr noundef %1) #0 comdat {
  %3 = alloca ptr, align 8
  %4 = alloca ptr, align 8
  store ptr %0, ptr %3, align 8
  store ptr %1, ptr %4, align 8
  %5 = load ptr, ptr %4, align 8
  ret ptr %5
}

; Function Attrs: mustprogress nounwind uwtable
define linkonce_odr noundef ptr @_ZSt14__copy_move_a1ILb1EPPN4llvm18CodeGenSubRegIndexES3_ET1_T0_S5_S4_(ptr noundef %0, ptr noundef %1, ptr noundef %2) #0 comdat {
  %4 = alloca ptr, align 8
  %5 = alloca ptr, align 8
  %6 = alloca ptr, align 8
  store ptr %0, ptr %4, align 8
  store ptr %1, ptr %5, align 8
  store ptr %2, ptr %6, align 8
  %7 = load ptr, ptr %4, align 8
  %8 = load ptr, ptr %5, align 8
  %9 = load ptr, ptr %6, align 8
  %10 = call noundef ptr @_ZSt14__copy_move_a2ILb1EPPN4llvm18CodeGenSubRegIndexES3_ET1_T0_S5_S4_(ptr noundef %7, ptr noundef %8, ptr noundef %9)
  ret ptr %10
}

; Function Attrs: mustprogress nounwind uwtable
define linkonce_odr noundef ptr @_ZSt12__niter_baseIPPN4llvm18CodeGenSubRegIndexEET_S4_(ptr noundef %0) #0 comdat {
  %2 = alloca ptr, align 8
  store ptr %0, ptr %2, align 8
  %3 = load ptr, ptr %2, align 8
  ret ptr %3
}

; Function Attrs: mustprogress nounwind uwtable
define linkonce_odr noundef ptr @_ZSt13__copy_move_aILb1EPPN4llvm18CodeGenSubRegIndexES3_ET1_T0_S5_S4_(ptr noundef %0, ptr noundef %1, ptr noundef %2) #0 comdat {
  %4 = alloca ptr, align 8
  %5 = alloca ptr, align 8
  %6 = alloca ptr, align 8
  store ptr %0, ptr %4, align 8
  store ptr %1, ptr %5, align 8
  store ptr %2, ptr %6, align 8
  %7 = load ptr, ptr %4, align 8
  %8 = call noundef ptr @_ZSt12__niter_baseIPPN4llvm18CodeGenSubRegIndexEET_S4_(ptr noundef %7) #6
  %9 = load ptr, ptr %5, align 8
  %10 = call noundef ptr @_ZSt12__niter_baseIPPN4llvm18CodeGenSubRegIndexEET_S4_(ptr noundef %9) #6
  %11 = load ptr, ptr %6, align 8
  %12 = call noundef ptr @_ZSt12__niter_baseIPPN4llvm18CodeGenSubRegIndexEET_S4_(ptr noundef %11) #6
  %13 = call noundef ptr @_ZSt14__copy_move_a1ILb1EPPN4llvm18CodeGenSubRegIndexES3_ET1_T0_S5_S4_(ptr noundef %8, ptr noundef %10, ptr noundef %12)
  %14 = call noundef ptr @_ZSt12__niter_wrapIPPN4llvm18CodeGenSubRegIndexEET_RKS4_S4_(ptr noundef nonnull align 8 dereferenceable(8) %6, ptr noundef %13)
  ret ptr %14
}

; Function Attrs: mustprogress nounwind uwtable
define linkonce_odr noundef ptr @_ZSt12__miter_baseIPPN4llvm18CodeGenSubRegIndexEET_S4_(ptr noundef %0) #0 comdat {
  %2 = alloca ptr, align 8
  store ptr %0, ptr %2, align 8
  %3 = load ptr, ptr %2, align 8
  ret ptr %3
}

; Function Attrs: mustprogress nounwind uwtable
define linkonce_odr hidden void @_ZN4llvm23SmallVectorTemplateBaseIPNS_18CodeGenSubRegIndexELb1EE8pop_backEv(ptr noundef nonnull align 8 dereferenceable(16) %0) #0 comdat align 2 {
  %2 = alloca ptr, align 8
  store ptr %0, ptr %2, align 8
  %3 = load ptr, ptr %2, align 8
  %4 = call noundef i64 @_ZNK4llvm15SmallVectorBaseIjE4sizeEv(ptr noundef nonnull align 8 dereferenceable(16) %3)
  %5 = sub i64 %4, 1
  call void @_ZN4llvm15SmallVectorBaseIjE8set_sizeEm(ptr noundef nonnull align 8 dereferenceable(16) %3, i64 noundef %5)
  ret void
}

; Function Attrs: mustprogress nounwind uwtable
define linkonce_odr noundef ptr @_ZSt4moveIPPN4llvm18CodeGenSubRegIndexES3_ET0_T_S5_S4_(ptr noundef %0, ptr noundef %1, ptr noundef %2) #0 comdat {
  %4 = alloca ptr, align 8
  %5 = alloca ptr, align 8
  %6 = alloca ptr, align 8
  store ptr %0, ptr %4, align 8
  store ptr %1, ptr %5, align 8
  store ptr %2, ptr %6, align 8
  %7 = load ptr, ptr %4, align 8
  %8 = call noundef ptr @_ZSt12__miter_baseIPPN4llvm18CodeGenSubRegIndexEET_S4_(ptr noundef %7)
  %9 = load ptr, ptr %5, align 8
  %10 = call noundef ptr @_ZSt12__miter_baseIPPN4llvm18CodeGenSubRegIndexEET_S4_(ptr noundef %9)
  %11 = load ptr, ptr %6, align 8
  %12 = call noundef ptr @_ZSt13__copy_move_aILb1EPPN4llvm18CodeGenSubRegIndexES3_ET1_T0_S5_S4_(ptr noundef %8, ptr noundef %10, ptr noundef %11)
  ret ptr %12
}

; Function Attrs: mustprogress nounwind uwtable
define linkonce_odr hidden noundef ptr @_ZN4llvm15SmallVectorImplIPNS_18CodeGenSubRegIndexEE5eraseEPKS2_(ptr noundef nonnull align 8 dereferenceable(16) %0, ptr noundef %1) #0 comdat align 2 {
  %3 = alloca ptr, align 8
  %4 = alloca ptr, align 8
  %5 = alloca ptr, align 8
  %6 = alloca ptr, align 8
  store ptr %0, ptr %3, align 8
  store ptr %1, ptr %4, align 8
  %7 = load ptr, ptr %3, align 8
  %8 = load ptr, ptr %4, align 8
  store ptr %8, ptr %5, align 8
  %9 = load ptr, ptr %5, align 8
  store ptr %9, ptr %6, align 8
  %10 = load ptr, ptr %5, align 8
  %11 = getelementptr inbounds ptr, ptr %10, i64 1
  %12 = call noundef ptr @_ZN4llvm25SmallVectorTemplateCommonIPNS_18CodeGenSubRegIndexEvE3endEv(ptr noundef nonnull align 8 dereferenceable(16) %7)
  %13 = load ptr, ptr %5, align 8
  %14 = call noundef ptr @_ZSt4moveIPPN4llvm18CodeGenSubRegIndexES3_ET0_T_S5_S4_(ptr noundef %11, ptr noundef %12, ptr noundef %13)
  call void @_ZN4llvm23SmallVectorTemplateBaseIPNS_18CodeGenSubRegIndexELb1EE8pop_backEv(ptr noundef nonnull align 8 dereferenceable(16) %7)
  %15 = load ptr, ptr %6, align 8
  ret ptr %15
}

; Function Attrs: mustprogress nounwind uwtable
define linkonce_odr hidden noundef ptr @_ZN4llvm25SmallVectorTemplateCommonIPNS_18CodeGenSubRegIndexEvE3endEv(ptr noundef nonnull align 8 dereferenceable(16) %0) #0 comdat align 2 {
  %2 = alloca ptr, align 8
  store ptr %0, ptr %2, align 8
  %3 = load ptr, ptr %2, align 8
  %4 = call noundef ptr @_ZN4llvm25SmallVectorTemplateCommonIPNS_18CodeGenSubRegIndexEvE5beginEv(ptr noundef nonnull align 8 dereferenceable(16) %3)
  %5 = call noundef i64 @_ZNK4llvm15SmallVectorBaseIjE4sizeEv(ptr noundef nonnull align 8 dereferenceable(16) %3)
  %6 = getelementptr inbounds ptr, ptr %4, i64 %5
  ret ptr %6
}

; Function Attrs: mustprogress nounwind uwtable
define linkonce_odr hidden noundef ptr @_ZN4llvm25SmallVectorTemplateCommonIPNS_18CodeGenSubRegIndexEvE5beginEv(ptr noundef nonnull align 8 dereferenceable(16) %0) #0 comdat align 2 {
  %2 = alloca ptr, align 8
  store ptr %0, ptr %2, align 8
  %3 = load ptr, ptr %2, align 8
  %4 = getelementptr inbounds nuw %"class.llvm::SmallVectorBase", ptr %3, i32 0, i32 0
  %5 = load ptr, ptr %4, align 8
  ret ptr %5
}

; Function Attrs: mustprogress nounwind uwtable
define dso_local void @_ZN4llvm18CodeGenSubRegIndex30computeConcatTransitiveClosureEv(ptr noundef nonnull align 8 dereferenceable(272) %0) #0 align 2 {
  %2 = alloca ptr, align 8
  %3 = alloca ptr, align 8
  %4 = alloca ptr, align 8
  store ptr %0, ptr %2, align 8
  %5 = load ptr, ptr %2, align 8
  %6 = getelementptr inbounds nuw %"class.llvm::CodeGenSubRegIndex", ptr %5, i32 0, i32 7
  %7 = call noundef ptr @_ZN4llvm25SmallVectorTemplateCommonIPNS_18CodeGenSubRegIndexEvE5beginEv(ptr noundef nonnull align 8 dereferenceable(16) %6)
  store ptr %7, ptr %3, align 8
  br label %8

8:                                                ; preds = %41, %1
  %9 = load ptr, ptr %3, align 8
  %10 = getelementptr inbounds nuw %"class.llvm::CodeGenSubRegIndex", ptr %5, i32 0, i32 7
  %11 = call noundef ptr @_ZN4llvm25SmallVectorTemplateCommonIPNS_18CodeGenSubRegIndexEvE3endEv(ptr noundef nonnull align 8 dereferenceable(16) %10)
  %12 = icmp ne ptr %9, %11
  br i1 %12, label %13, label %42

13:                                               ; preds = %8
  %14 = load ptr, ptr %3, align 8
  %15 = load ptr, ptr %14, align 8
  store ptr %15, ptr %4, align 8
  %16 = load ptr, ptr %4, align 8
  call void @_ZN4llvm18CodeGenSubRegIndex30computeConcatTransitiveClosureEv(ptr noundef nonnull align 8 dereferenceable(272) %16)
  %17 = load ptr, ptr %4, align 8
  %18 = getelementptr inbounds nuw %"class.llvm::CodeGenSubRegIndex", ptr %17, i32 0, i32 7
  %19 = call noundef zeroext i1 @_ZNK4llvm15SmallVectorBaseIjE5emptyEv(ptr noundef nonnull align 8 dereferenceable(16) %18)
  br i1 %19, label %20, label %23

20:                                               ; preds = %13
  %21 = load ptr, ptr %3, align 8
  %22 = getelementptr inbounds ptr, ptr %21, i32 1
  store ptr %22, ptr %3, align 8
  br label %41

23:                                               ; preds = %13
  %24 = getelementptr inbounds nuw %"class.llvm::CodeGenSubRegIndex", ptr %5, i32 0, i32 7
  %25 = load ptr, ptr %3, align 8
  %26 = call noundef ptr @_ZN4llvm15SmallVectorImplIPNS_18CodeGenSubRegIndexEE5eraseEPKS2_(ptr noundef nonnull align 8 dereferenceable(16) %24, ptr noundef %25)
  store ptr %26, ptr %3, align 8
  %27 = getelementptr inbounds nuw %"class.llvm::CodeGenSubRegIndex", ptr %5, i32 0, i32 7
  %28 = load ptr, ptr %3, align 8
  %29 = load ptr, ptr %4, align 8
  %30 = getelementptr inbounds nuw %"class.llvm::CodeGenSubRegIndex", ptr %29, i32 0, i32 7
  %31 = call noundef ptr @_ZN4llvm25SmallVectorTemplateCommonIPNS_18CodeGenSubRegIndexEvE5beginEv(ptr noundef nonnull align 8 dereferenceable(16) %30)
  %32 = load ptr, ptr %4, align 8
  %33 = getelementptr inbounds nuw %"class.llvm::CodeGenSubRegIndex", ptr %32, i32 0, i32 7
  %34 = call noundef ptr @_ZN4llvm25SmallVectorTemplateCommonIPNS_18CodeGenSubRegIndexEvE3endEv(ptr noundef nonnull align 8 dereferenceable(16) %33)
  %35 = call noundef ptr @_ZN4llvm15SmallVectorImplIPNS_18CodeGenSubRegIndexEE6insertIPS2_vEES5_S5_T_S6_(ptr noundef nonnull align 8 dereferenceable(16) %27, ptr noundef %28, ptr noundef %31, ptr noundef %34)
  store ptr %35, ptr %3, align 8
  %36 = load ptr, ptr %4, align 8
  %37 = getelementptr inbounds nuw %"class.llvm::CodeGenSubRegIndex", ptr %36, i32 0, i32 7
  %38 = call noundef i64 @_ZNK4llvm15SmallVectorBaseIjE4sizeEv(ptr noundef nonnull align 8 dereferenceable(16) %37)
  %39 = load ptr, ptr %3, align 8
  %40 = getelementptr inbounds ptr, ptr %39, i64 %38
  store ptr %40, ptr %3, align 8
  br label %41

41:                                               ; preds = %23, %20
  br label %8, !llvm.loop !6

42:                                               ; preds = %8
  ret void
}