; Function Attrs: mustprogress nounwind uwtable
define dso_local void @_ZN4llvm18CodeGenSubRegIndex30computeConcatTransitiveClosureEv(ptr noundef nonnull align 8 dereferenceable(272) %0) local_unnamed_addr #0 align 2 {
  %2 = getelementptr inbounds nuw i8, ptr %0, i64 168
  %3 = load ptr, ptr %2, align 8
  %4 = tail call noundef i64 @_ZNK4llvm15SmallVectorBaseIjE4sizeEv(ptr noundef nonnull align 8 dereferenceable(16) %2) #25
  %.not12 = icmp eq i64 %4, 0
  br i1 %.not12, label %._crit_edge, label %.lr.ph

.lr.ph:                                           ; preds = %1, %25
  %.013 = phi ptr [ %.1, %25 ], [ %3, %1 ]
  %5 = load ptr, ptr %.013, align 8
  tail call void @_ZN4llvm18CodeGenSubRegIndex30computeConcatTransitiveClosureEv(ptr noundef nonnull align 8 dereferenceable(272) %5)
  %6 = getelementptr inbounds nuw i8, ptr %5, i64 168
  %7 = tail call noundef zeroext i1 @_ZNK4llvm15SmallVectorBaseIjE5emptyEv(ptr noundef nonnull align 8 dereferenceable(16) %6) #25
  %8 = getelementptr inbounds i8, ptr %.013, i64 8
  br i1 %7, label %25, label %9

9:                                                ; preds = %.lr.ph
  %10 = load ptr, ptr %2, align 8
  %11 = tail call noundef i64 @_ZNK4llvm15SmallVectorBaseIjE4sizeEv(ptr noundef nonnull align 8 dereferenceable(16) %2) #25
  %12 = getelementptr inbounds ptr, ptr %10, i64 %11
  %.not.i.i.i.i.i.i = icmp eq ptr %12, %8
  br i1 %.not.i.i.i.i.i.i, label %_ZN4llvm15SmallVectorImplIPNS_18CodeGenSubRegIndexEE5eraseEPKS2_.exit, label %13

13:                                               ; preds = %9
  %14 = ptrtoint ptr %12 to i64
  %15 = ptrtoint ptr %8 to i64
  %16 = sub i64 %14, %15
  tail call void @llvm.memmove.p0.p0.i64(ptr nonnull align 8 %.013, ptr nonnull align 8 %8, i64 %16, i1 false)
  br label %_ZN4llvm15SmallVectorImplIPNS_18CodeGenSubRegIndexEE5eraseEPKS2_.exit

_ZN4llvm15SmallVectorImplIPNS_18CodeGenSubRegIndexEE5eraseEPKS2_.exit: ; preds = %9, %13
  %17 = tail call noundef i64 @_ZNK4llvm15SmallVectorBaseIjE4sizeEv(ptr noundef nonnull align 8 dereferenceable(16) %2) #25
  %18 = add i64 %17, -1
  tail call void @_ZN4llvm15SmallVectorBaseIjE8set_sizeEm(ptr noundef nonnull align 8 dereferenceable(16) %2, i64 noundef %18) #25
  %19 = load ptr, ptr %6, align 8
  %20 = tail call noundef i64 @_ZNK4llvm15SmallVectorBaseIjE4sizeEv(ptr noundef nonnull align 8 dereferenceable(16) %6) #25
  %21 = getelementptr inbounds ptr, ptr %19, i64 %20
  %22 = tail call noundef ptr @_ZN4llvm15SmallVectorImplIPNS_18CodeGenSubRegIndexEE6insertIPS2_vEES5_S5_T_S6_(ptr noundef nonnull align 8 dereferenceable(16) %2, ptr noundef nonnull %.013, ptr noundef %19, ptr noundef %21)
  %23 = tail call noundef i64 @_ZNK4llvm15SmallVectorBaseIjE4sizeEv(ptr noundef nonnull align 8 dereferenceable(16) %6) #25
  %24 = getelementptr inbounds ptr, ptr %22, i64 %23
  br label %25

25:                                               ; preds = %.lr.ph, %_ZN4llvm15SmallVectorImplIPNS_18CodeGenSubRegIndexEE5eraseEPKS2_.exit
  %.1 = phi ptr [ %24, %_ZN4llvm15SmallVectorImplIPNS_18CodeGenSubRegIndexEE5eraseEPKS2_.exit ], [ %8, %.lr.ph ]
  %26 = load ptr, ptr %2, align 8
  %27 = tail call noundef i64 @_ZNK4llvm15SmallVectorBaseIjE4sizeEv(ptr noundef nonnull align 8 dereferenceable(16) %2) #25
  %28 = getelementptr inbounds ptr, ptr %26, i64 %27
  %.not = icmp eq ptr %.1, %28
  br i1 %.not, label %._crit_edge, label %.lr.ph, !llvm.loop !11

._crit_edge:                                      ; preds = %25, %1
  ret void
}